; Function Attrs: nounwind uwtable
define internal noundef i32 @lj_cf_buffer_method_reserve(ptr noundef %0) #0 {
  %2 = getelementptr inbounds nuw i8, ptr %0, i64 32
  %3 = load ptr, ptr %2, align 8, !tbaa !4
  %4 = getelementptr inbounds nuw i8, ptr %0, i64 40
  %5 = load ptr, ptr %4, align 8, !tbaa !14
  %6 = icmp ult ptr %3, %5
  br i1 %6, label %7, label %16

7:                                                ; preds = %1
  %8 = load i64, ptr %3, align 8, !tbaa !15
  %.mask.i = and i64 %8, -140737488355328
  %9 = icmp eq i64 %.mask.i, -1829587348619264
  br i1 %9, label %10, label %16

10:                                               ; preds = %7
  %11 = and i64 %8, 140737488355327
  %12 = inttoptr i64 %11 to ptr
  %13 = getelementptr inbounds nuw i8, ptr %12, i64 10
  %14 = load i8, ptr %13, align 2, !tbaa !15
  %15 = icmp eq i8 %14, 3
  br i1 %15, label %buffer_tobuf.exit, label %16

16:                                               ; preds = %10, %7, %1
  tail call void @lj_err_argtype(ptr noundef nonnull %0, i32 noundef 1, ptr noundef nonnull @.str.2) #7
  unreachable

buffer_tobuf.exit:                                ; preds = %10
  %17 = getelementptr inbounds nuw i8, ptr %12, i64 48
  %18 = ptrtoint ptr %0 to i64
  %19 = getelementptr inbounds nuw i8, ptr %12, i64 72
  %20 = load i64, ptr %19, align 8, !tbaa !16
  %21 = and i64 %20, 7
  %22 = or i64 %21, %18
  store i64 %22, ptr %19, align 8, !tbaa !16
  %23 = tail call i32 @lj_lib_checkintrange(ptr noundef nonnull %0, i32 noundef 2, i32 noundef 0, i32 noundef 2147483392) #6
  %24 = getelementptr inbounds nuw i8, ptr %12, i64 56
  %25 = load ptr, ptr %24, align 8, !tbaa !54
  %26 = load ptr, ptr %17, align 8, !tbaa !55
  %27 = ptrtoint ptr %25 to i64
  %28 = ptrtoint ptr %26 to i64
  %29 = sub i64 %27, %28
  %30 = trunc i64 %29 to i32
  %31 = icmp ugt i32 %23, %30
  br i1 %31, label %32, label %lj_buf_more.exit, !prof !56

32:                                               ; preds = %buffer_tobuf.exit
  %33 = tail call ptr @lj_buf_more2(ptr noundef nonnull %17, i32 noundef %23) #6
  br label %lj_buf_more.exit

lj_buf_more.exit:                                 ; preds = %buffer_tobuf.exit, %32
  %34 = getelementptr inbounds nuw i8, ptr %0, i64 16
  %35 = load i64, ptr %34, align 8, !tbaa !19
  %36 = inttoptr i64 %35 to ptr
  %37 = getelementptr inbounds nuw i8, ptr %36, i64 384
  %38 = load i64, ptr %37, align 8, !tbaa !36
  %.not = icmp eq i64 %38, 0
  br i1 %.not, label %39, label %49

39:                                               ; preds = %lj_buf_more.exit
  %40 = load ptr, ptr %4, align 8, !tbaa !14
  %41 = getelementptr inbounds nuw i8, ptr %0, i64 56
  %42 = load i64, ptr %41, align 8, !tbaa !57
  %43 = ptrtoint ptr %40 to i64
  %44 = sub i64 %43, %42
  %45 = tail call i32 @luaopen_ffi(ptr noundef nonnull %0) #6
  %46 = load i64, ptr %41, align 8, !tbaa !57
  %47 = inttoptr i64 %46 to ptr
  %48 = getelementptr inbounds i8, ptr %47, i64 %44
  store ptr %48, ptr %4, align 8, !tbaa !14
  br label %49

49:                                               ; preds = %39, %lj_buf_more.exit
  %50 = tail call ptr @lj_mem_newgco(ptr noundef nonnull %0, i64 noundef 24) #6
  %51 = getelementptr inbounds nuw i8, ptr %50, i64 9
  store i8 10, ptr %51, align 1, !tbaa !58
  %52 = getelementptr inbounds nuw i8, ptr %50, i64 10
  store i16 20, ptr %52, align 2, !tbaa !61
  %53 = load ptr, ptr %17, align 8, !tbaa !34
  %54 = getelementptr inbounds nuw i8, ptr %50, i64 16
  store ptr %53, ptr %54, align 8, !tbaa !62
  %55 = load ptr, ptr %4, align 8, !tbaa !14
  %56 = getelementptr inbounds nuw i8, ptr %55, i64 8
  store ptr %56, ptr %4, align 8, !tbaa !14
  %57 = ptrtoint ptr %50 to i64
  %58 = or i64 %57, -1548112371908608
  store i64 %58, ptr %55, align 8, !tbaa !15
  %59 = load ptr, ptr %4, align 8, !tbaa !14
  %60 = getelementptr inbounds nuw i8, ptr %59, i64 8
  store ptr %60, ptr %4, align 8, !tbaa !14
  %61 = load ptr, ptr %24, align 8, !tbaa !21
  %62 = load ptr, ptr %17, align 8, !tbaa !34
  %63 = ptrtoint ptr %61 to i64
  %64 = ptrtoint ptr %62 to i64
  %65 = sub i64 %63, %64
  %66 = trunc i64 %65 to i32
  %67 = sitofp i32 %66 to double
  store double %67, ptr %59, align 8, !tbaa !15
  ret i32 2
}